
project.out:     file format elf32-littlearm


Disassembly of section .text:

00000000 <func>:
   0:	b480      	push	{r7}
   2:	b085      	sub	sp, #20
   4:	af00      	add	r7, sp, #0
   6:	6078      	str	r0, [r7, #4]
   8:	2300      	movs	r3, #0
   a:	60fb      	str	r3, [r7, #12]
   c:	4b16      	ldr	r3, [pc, #88]	; (68 <func+0x68>)
   e:	60bb      	str	r3, [r7, #8]
  10:	4b16      	ldr	r3, [pc, #88]	; (6c <func+0x6c>)
  12:	681b      	ldr	r3, [r3, #0]
  14:	3301      	adds	r3, #1
  16:	4a15      	ldr	r2, [pc, #84]	; (6c <func+0x6c>)
  18:	6013      	str	r3, [r2, #0]
  1a:	4b14      	ldr	r3, [pc, #80]	; (6c <func+0x6c>)
  1c:	681b      	ldr	r3, [r3, #0]
  1e:	009b      	lsls	r3, r3, #2
  20:	4a13      	ldr	r2, [pc, #76]	; (70 <func+0x70>)
  22:	4413      	add	r3, r2
  24:	68fa      	ldr	r2, [r7, #12]
  26:	601a      	str	r2, [r3, #0]
  28:	2300      	movs	r3, #0
  2a:	60fb      	str	r3, [r7, #12]
  2c:	e011      	b.n	52 <func+0x52>
  2e:	68ba      	ldr	r2, [r7, #8]
  30:	68fb      	ldr	r3, [r7, #12]
  32:	4413      	add	r3, r2
  34:	781b      	ldrb	r3, [r3, #0]
  36:	b2db      	uxtb	r3, r3
  38:	4619      	mov	r1, r3
  3a:	4a0d      	ldr	r2, [pc, #52]	; (70 <func+0x70>)
  3c:	68fb      	ldr	r3, [r7, #12]
  3e:	f842 1023 	str.w	r1, [r2, r3, lsl #2]
  42:	4b0a      	ldr	r3, [pc, #40]	; (6c <func+0x6c>)
  44:	681b      	ldr	r3, [r3, #0]
  46:	3301      	adds	r3, #1
  48:	4a08      	ldr	r2, [pc, #32]	; (6c <func+0x6c>)
  4a:	6013      	str	r3, [r2, #0]
  4c:	68fb      	ldr	r3, [r7, #12]
  4e:	3301      	adds	r3, #1
  50:	60fb      	str	r3, [r7, #12]
  52:	68fb      	ldr	r3, [r7, #12]
  54:	2b05      	cmp	r3, #5
  56:	d9ea      	bls.n	2e <func+0x2e>
  58:	4b04      	ldr	r3, [pc, #16]	; (6c <func+0x6c>)
  5a:	681b      	ldr	r3, [r3, #0]
  5c:	4618      	mov	r0, r3
  5e:	3714      	adds	r7, #20
  60:	46bd      	mov	sp, r7
  62:	f85d 7b04 	ldr.w	r7, [sp], #4
  66:	4770      	bx	lr
	...
